target datalayout = "e-m:e-p270:32:32-p271:32:32-p272:64:64-i64:64-i128:128-f80:128-n8:16:32:64-S128"
target triple = "x86_64-pc-linux-gnu"

@.str.24 = private unnamed_addr constant [28 x i8] c"../openssl/test/test_test.c\00", align 1
@stderr = external global ptr, align 8
@.str.47 = private unnamed_addr constant [19 x i8] c"# FATAL: %s != %d\0A\00", align 1
@.str.209 = private unnamed_addr constant [5 x i8] c"NULL\00", align 1
@test_string.buf = internal global [4 x i8] c"abc\00", align 1
@.str.228 = private unnamed_addr constant [24 x i8] c"TEST_str_eq(NULL, NULL)\00", align 1
@.str.229 = private unnamed_addr constant [24 x i8] c"TEST_str_eq(\22abc\22, buf)\00", align 1
@.str.230 = private unnamed_addr constant [6 x i8] c"\22abc\22\00", align 1
@.str.231 = private unnamed_addr constant [4 x i8] c"buf\00", align 1
@.str.232 = private unnamed_addr constant [4 x i8] c"abc\00", align 1
@.str.233 = private unnamed_addr constant [25 x i8] c"TEST_str_eq(\22abc\22, NULL)\00", align 1
@.str.234 = private unnamed_addr constant [23 x i8] c"TEST_str_eq(\22abc\22, \22\22)\00", align 1
@.str.235 = private unnamed_addr constant [3 x i8] c"\22\22\00", align 1
@.str.236 = private unnamed_addr constant [1 x i8] zeroinitializer, align 1
@.str.237 = private unnamed_addr constant [23 x i8] c"TEST_str_eq(NULL, buf)\00", align 1
@.str.238 = private unnamed_addr constant [24 x i8] c"TEST_str_ne(NULL, NULL)\00", align 1
@.str.239 = private unnamed_addr constant [22 x i8] c"TEST_str_eq(\22\22, NULL)\00", align 1
@.str.240 = private unnamed_addr constant [22 x i8] c"TEST_str_eq(NULL, \22\22)\00", align 1
@.str.241 = private unnamed_addr constant [20 x i8] c"TEST_str_ne(\22\22, \22\22)\00", align 1
@.str.242 = private unnamed_addr constant [39 x i8] c"TEST_str_eq(\22\\1\\2\\3\\4\\5\22, \22\\1x\\3\\6\\5\22)\00", align 1
@.str.243 = private unnamed_addr constant [13 x i8] c"\22\\1\\2\\3\\4\\5\22\00", align 1
@.str.244 = private unnamed_addr constant [12 x i8] c"\22\\1x\\3\\6\\5\22\00", align 1
@.str.245 = private unnamed_addr constant [6 x i8] c"\01\02\03\04\05\00", align 1
@.str.246 = private unnamed_addr constant [6 x i8] c"\01x\03\06\05\00", align 1
@.str.247 = private unnamed_addr constant [24 x i8] c"TEST_str_ne(\22abc\22, buf)\00", align 1
@.str.248 = private unnamed_addr constant [25 x i8] c"TEST_str_ne(\22abc\22, NULL)\00", align 1
@.str.249 = private unnamed_addr constant [23 x i8] c"TEST_str_ne(NULL, buf)\00", align 1
@.str.250 = private unnamed_addr constant [37 x i8] c"TEST_str_eq(\22abcdef\22, \22abcdefghijk\22)\00", align 1
@.str.251 = private unnamed_addr constant [9 x i8] c"\22abcdef\22\00", align 1
@.str.252 = private unnamed_addr constant [14 x i8] c"\22abcdefghijk\22\00", align 1
@.str.253 = private unnamed_addr constant [7 x i8] c"abcdef\00", align 1
@.str.254 = private unnamed_addr constant [12 x i8] c"abcdefghijk\00", align 1

; Function Attrs: nounwind uwtable
define internal i32 @test_case(i32 noundef %0, ptr noundef %1, i32 noundef %2) #0 {
  %4 = alloca i32, align 4
  %5 = alloca i32, align 4
  %6 = alloca ptr, align 8
  %7 = alloca i32, align 4
  store i32 %0, ptr %5, align 4, !tbaa !4
  store ptr %1, ptr %6, align 8, !tbaa !9
  store i32 %2, ptr %7, align 4, !tbaa !4
  %8 = load i32, ptr %7, align 4, !tbaa !4
  %9 = load i32, ptr %5, align 4, !tbaa !4
  %10 = icmp ne i32 %8, %9
  br i1 %10, label %11, label %16

11:                                               ; preds = %3
  %12 = load ptr, ptr @stderr, align 8, !tbaa !16
  %13 = load ptr, ptr %6, align 8, !tbaa !9
  %14 = load i32, ptr %5, align 4, !tbaa !4
  %15 = call i32 (ptr, ptr, ...) @fprintf(ptr noundef %12, ptr noundef @.str.47, ptr noundef %13, i32 noundef %14) #7
  store i32 0, ptr %4, align 4
  br label %17

16:                                               ; preds = %3
  store i32 1, ptr %4, align 4
  br label %17

17:                                               ; preds = %16, %11
  %18 = load i32, ptr %4, align 4
  ret i32 %18
}

; Function Attrs: nounwind uwtable
define internal i32 @test_string() #0 {
  %1 = alloca i32, align 4
  %2 = call i32 @test_str_eq(ptr noundef @.str.24, i32 noundef 260, ptr noundef @.str.209, ptr noundef @.str.209, ptr noundef null, ptr noundef null)
  %3 = call i32 @test_case(i32 noundef 1, ptr noundef @.str.228, i32 noundef %2)
  %4 = icmp ne i32 %3, 0
  br i1 %4, label %5, label %57

5:                                                ; preds = %0
  %6 = call i32 @test_str_eq(ptr noundef @.str.24, i32 noundef 261, ptr noundef @.str.230, ptr noundef @.str.231, ptr noundef @.str.232, ptr noundef @test_string.buf)
  %7 = call i32 @test_case(i32 noundef 1, ptr noundef @.str.229, i32 noundef %6)
  %8 = icmp ne i32 %7, 0
  br i1 %8, label %9, label %57

9:                                                ; preds = %5
  %10 = call i32 @test_str_eq(ptr noundef @.str.24, i32 noundef 262, ptr noundef @.str.230, ptr noundef @.str.209, ptr noundef @.str.232, ptr noundef null)
  %11 = call i32 @test_case(i32 noundef 0, ptr noundef @.str.233, i32 noundef %10)
  %12 = icmp ne i32 %11, 0
  br i1 %12, label %13, label %57

13:                                               ; preds = %9
  %14 = call i32 @test_str_eq(ptr noundef @.str.24, i32 noundef 263, ptr noundef @.str.230, ptr noundef @.str.235, ptr noundef @.str.232, ptr noundef @.str.236)
  %15 = call i32 @test_case(i32 noundef 0, ptr noundef @.str.234, i32 noundef %14)
  %16 = icmp ne i32 %15, 0
  br i1 %16, label %17, label %57

17:                                               ; preds = %13
  %18 = call i32 @test_str_eq(ptr noundef @.str.24, i32 noundef 264, ptr noundef @.str.209, ptr noundef @.str.231, ptr noundef null, ptr noundef @test_string.buf)
  %19 = call i32 @test_case(i32 noundef 0, ptr noundef @.str.237, i32 noundef %18)
  %20 = icmp ne i32 %19, 0
  br i1 %20, label %21, label %57

21:                                               ; preds = %17
  %22 = call i32 @test_str_ne(ptr noundef @.str.24, i32 noundef 265, ptr noundef @.str.209, ptr noundef @.str.209, ptr noundef null, ptr noundef null)
  %23 = call i32 @test_case(i32 noundef 0, ptr noundef @.str.238, i32 noundef %22)
  %24 = icmp ne i32 %23, 0
  br i1 %24, label %25, label %57

25:                                               ; preds = %21
  %26 = call i32 @test_str_eq(ptr noundef @.str.24, i32 noundef 266, ptr noundef @.str.235, ptr noundef @.str.209, ptr noundef @.str.236, ptr noundef null)
  %27 = call i32 @test_case(i32 noundef 0, ptr noundef @.str.239, i32 noundef %26)
  %28 = icmp ne i32 %27, 0
  br i1 %28, label %29, label %57

29:                                               ; preds = %25
  %30 = call i32 @test_str_eq(ptr noundef @.str.24, i32 noundef 267, ptr noundef @.str.209, ptr noundef @.str.235, ptr noundef null, ptr noundef @.str.236)
  %31 = call i32 @test_case(i32 noundef 0, ptr noundef @.str.240, i32 noundef %30)
  %32 = icmp ne i32 %31, 0
  br i1 %32, label %33, label %57

33:                                               ; preds = %29
  %34 = call i32 @test_str_ne(ptr noundef @.str.24, i32 noundef 268, ptr noundef @.str.235, ptr noundef @.str.235, ptr noundef @.str.236, ptr noundef @.str.236)
  %35 = call i32 @test_case(i32 noundef 0, ptr noundef @.str.241, i32 noundef %34)
  %36 = icmp ne i32 %35, 0
  br i1 %36, label %37, label %57

37:                                               ; preds = %33
  %38 = call i32 @test_str_eq(ptr noundef @.str.24, i32 noundef 269, ptr noundef @.str.243, ptr noundef @.str.244, ptr noundef @.str.245, ptr noundef @.str.246)
  %39 = call i32 @test_case(i32 noundef 0, ptr noundef @.str.242, i32 noundef %38)
  %40 = icmp ne i32 %39, 0
  br i1 %40, label %41, label %57

41:                                               ; preds = %37
  %42 = call i32 @test_str_ne(ptr noundef @.str.24, i32 noundef 270, ptr noundef @.str.230, ptr noundef @.str.231, ptr noundef @.str.232, ptr noundef @test_string.buf)
  %43 = call i32 @test_case(i32 noundef 0, ptr noundef @.str.247, i32 noundef %42)
  %44 = icmp ne i32 %43, 0
  br i1 %44, label %45, label %57

45:                                               ; preds = %41
  %46 = call i32 @test_str_ne(ptr noundef @.str.24, i32 noundef 271, ptr noundef @.str.230, ptr noundef @.str.209, ptr noundef @.str.232, ptr noundef null)
  %47 = call i32 @test_case(i32 noundef 1, ptr noundef @.str.248, i32 noundef %46)
  %48 = icmp ne i32 %47, 0
  br i1 %48, label %49, label %57

49:                                               ; preds = %45
  %50 = call i32 @test_str_ne(ptr noundef @.str.24, i32 noundef 272, ptr noundef @.str.209, ptr noundef @.str.231, ptr noundef null, ptr noundef @test_string.buf)
  %51 = call i32 @test_case(i32 noundef 1, ptr noundef @.str.249, i32 noundef %50)
  %52 = icmp ne i32 %51, 0
  br i1 %52, label %53, label %57

53:                                               ; preds = %49
  %54 = call i32 @test_str_eq(ptr noundef @.str.24, i32 noundef 273, ptr noundef @.str.251, ptr noundef @.str.252, ptr noundef @.str.253, ptr noundef @.str.254)
  %55 = call i32 @test_case(i32 noundef 0, ptr noundef @.str.250, i32 noundef %54)
  %56 = icmp ne i32 %55, 0
  br i1 %56, label %58, label %57

57:                                               ; preds = %53, %49, %45, %41, %37, %33, %29, %25, %21, %17, %13, %9, %5, %0
  br label %59

58:                                               ; preds = %53
  store i32 1, ptr %1, align 4
  br label %60

59:                                               ; preds = %57
  store i32 0, ptr %1, align 4
  br label %60

60:                                               ; preds = %59, %58
  %61 = load i32, ptr %1, align 4
  ret i32 %61
}