; Function Attrs: nounwind uwtable
define internal range(i32 0, 2) i32 @test_string() #0 {
  %1 = tail call i32 @test_str_eq(ptr noundef nonnull @.str.24, i32 noundef 260, ptr noundef nonnull @.str.209, ptr noundef nonnull @.str.209, ptr noundef null, ptr noundef null) #5
  %.not.i = icmp eq i32 %1, 1
  br i1 %.not.i, label %test_case.exit, label %test_case.exit.thread

test_case.exit.thread:                            ; preds = %0
  %2 = load ptr, ptr @stderr, align 8, !tbaa !4
  %3 = tail call i32 (ptr, ptr, ...) @fprintf(ptr noundef %2, ptr noundef nonnull @.str.47, ptr noundef nonnull @.str.228, i32 noundef 1) #6
  br label %test_case.exit52

test_case.exit:                                   ; preds = %0
  %4 = tail call i32 @test_str_eq(ptr noundef nonnull @.str.24, i32 noundef 261, ptr noundef nonnull @.str.230, ptr noundef nonnull @.str.231, ptr noundef nonnull @.str.232, ptr noundef nonnull @test_string.buf) #5
  %.not.i14 = icmp eq i32 %4, 1
  br i1 %.not.i14, label %test_case.exit16, label %test_case.exit16.thread

test_case.exit16.thread:                          ; preds = %test_case.exit
  %5 = load ptr, ptr @stderr, align 8, !tbaa !4
  %6 = tail call i32 (ptr, ptr, ...) @fprintf(ptr noundef %5, ptr noundef nonnull @.str.47, ptr noundef nonnull @.str.229, i32 noundef 1) #6
  br label %test_case.exit52

test_case.exit16:                                 ; preds = %test_case.exit
  %7 = tail call i32 @test_str_eq(ptr noundef nonnull @.str.24, i32 noundef 262, ptr noundef nonnull @.str.230, ptr noundef nonnull @.str.209, ptr noundef nonnull @.str.232, ptr noundef null) #5
  %.not.i17 = icmp eq i32 %7, 0
  br i1 %.not.i17, label %test_case.exit19, label %test_case.exit19.thread

test_case.exit19.thread:                          ; preds = %test_case.exit16
  %8 = load ptr, ptr @stderr, align 8, !tbaa !4
  %9 = tail call i32 (ptr, ptr, ...) @fprintf(ptr noundef %8, ptr noundef nonnull @.str.47, ptr noundef nonnull @.str.233, i32 noundef 0) #6
  br label %test_case.exit52

test_case.exit19:                                 ; preds = %test_case.exit16
  %10 = tail call i32 @test_str_eq(ptr noundef nonnull @.str.24, i32 noundef 263, ptr noundef nonnull @.str.230, ptr noundef nonnull @.str.235, ptr noundef nonnull @.str.232, ptr noundef nonnull @.str.236) #5
  %.not.i20 = icmp eq i32 %10, 0
  br i1 %.not.i20, label %test_case.exit22, label %test_case.exit22.thread

test_case.exit22.thread:                          ; preds = %test_case.exit19
  %11 = load ptr, ptr @stderr, align 8, !tbaa !4
  %12 = tail call i32 (ptr, ptr, ...) @fprintf(ptr noundef %11, ptr noundef nonnull @.str.47, ptr noundef nonnull @.str.234, i32 noundef 0) #6
  br label %test_case.exit52

test_case.exit22:                                 ; preds = %test_case.exit19
  %13 = tail call i32 @test_str_eq(ptr noundef nonnull @.str.24, i32 noundef 264, ptr noundef nonnull @.str.209, ptr noundef nonnull @.str.231, ptr noundef null, ptr noundef nonnull @test_string.buf) #5
  %.not.i23 = icmp eq i32 %13, 0
  br i1 %.not.i23, label %test_case.exit25, label %test_case.exit25.thread

test_case.exit25.thread:                          ; preds = %test_case.exit22
  %14 = load ptr, ptr @stderr, align 8, !tbaa !4
  %15 = tail call i32 (ptr, ptr, ...) @fprintf(ptr noundef %14, ptr noundef nonnull @.str.47, ptr noundef nonnull @.str.237, i32 noundef 0) #6
  br label %test_case.exit52

test_case.exit25:                                 ; preds = %test_case.exit22
  %16 = tail call i32 @test_str_ne(ptr noundef nonnull @.str.24, i32 noundef 265, ptr noundef nonnull @.str.209, ptr noundef nonnull @.str.209, ptr noundef null, ptr noundef null) #5
  %.not.i26 = icmp eq i32 %16, 0
  br i1 %.not.i26, label %test_case.exit28, label %test_case.exit28.thread

test_case.exit28.thread:                          ; preds = %test_case.exit25
  %17 = load ptr, ptr @stderr, align 8, !tbaa !4
  %18 = tail call i32 (ptr, ptr, ...) @fprintf(ptr noundef %17, ptr noundef nonnull @.str.47, ptr noundef nonnull @.str.238, i32 noundef 0) #6
  br label %test_case.exit52

test_case.exit28:                                 ; preds = %test_case.exit25
  %19 = tail call i32 @test_str_eq(ptr noundef nonnull @.str.24, i32 noundef 266, ptr noundef nonnull @.str.235, ptr noundef nonnull @.str.209, ptr noundef nonnull @.str.236, ptr noundef null) #5
  %.not.i29 = icmp eq i32 %19, 0
  br i1 %.not.i29, label %test_case.exit31, label %test_case.exit31.thread

test_case.exit31.thread:                          ; preds = %test_case.exit28
  %20 = load ptr, ptr @stderr, align 8, !tbaa !4
  %21 = tail call i32 (ptr, ptr, ...) @fprintf(ptr noundef %20, ptr noundef nonnull @.str.47, ptr noundef nonnull @.str.239, i32 noundef 0) #6
  br label %test_case.exit52

test_case.exit31:                                 ; preds = %test_case.exit28
  %22 = tail call i32 @test_str_eq(ptr noundef nonnull @.str.24, i32 noundef 267, ptr noundef nonnull @.str.209, ptr noundef nonnull @.str.235, ptr noundef null, ptr noundef nonnull @.str.236) #5
  %.not.i32 = icmp eq i32 %22, 0
  br i1 %.not.i32, label %test_case.exit34, label %test_case.exit34.thread

test_case.exit34.thread:                          ; preds = %test_case.exit31
  %23 = load ptr, ptr @stderr, align 8, !tbaa !4
  %24 = tail call i32 (ptr, ptr, ...) @fprintf(ptr noundef %23, ptr noundef nonnull @.str.47, ptr noundef nonnull @.str.240, i32 noundef 0) #6
  br label %test_case.exit52

test_case.exit34:                                 ; preds = %test_case.exit31
  %25 = tail call i32 @test_str_ne(ptr noundef nonnull @.str.24, i32 noundef 268, ptr noundef nonnull @.str.235, ptr noundef nonnull @.str.235, ptr noundef nonnull @.str.236, ptr noundef nonnull @.str.236) #5
  %.not.i35 = icmp eq i32 %25, 0
  br i1 %.not.i35, label %test_case.exit37, label %test_case.exit37.thread

test_case.exit37.thread:                          ; preds = %test_case.exit34
  %26 = load ptr, ptr @stderr, align 8, !tbaa !4
  %27 = tail call i32 (ptr, ptr, ...) @fprintf(ptr noundef %26, ptr noundef nonnull @.str.47, ptr noundef nonnull @.str.241, i32 noundef 0) #6
  br label %test_case.exit52

test_case.exit37:                                 ; preds = %test_case.exit34
  %28 = tail call i32 @test_str_eq(ptr noundef nonnull @.str.24, i32 noundef 269, ptr noundef nonnull @.str.243, ptr noundef nonnull @.str.244, ptr noundef nonnull @.str.245, ptr noundef nonnull @.str.246) #5
  %.not.i38 = icmp eq i32 %28, 0
  br i1 %.not.i38, label %test_case.exit40, label %test_case.exit40.thread

test_case.exit40.thread:                          ; preds = %test_case.exit37
  %29 = load ptr, ptr @stderr, align 8, !tbaa !4
  %30 = tail call i32 (ptr, ptr, ...) @fprintf(ptr noundef %29, ptr noundef nonnull @.str.47, ptr noundef nonnull @.str.242, i32 noundef 0) #6
  br label %test_case.exit52

test_case.exit40:                                 ; preds = %test_case.exit37
  %31 = tail call i32 @test_str_ne(ptr noundef nonnull @.str.24, i32 noundef 270, ptr noundef nonnull @.str.230, ptr noundef nonnull @.str.231, ptr noundef nonnull @.str.232, ptr noundef nonnull @test_string.buf) #5
  %.not.i41 = icmp eq i32 %31, 0
  br i1 %.not.i41, label %test_case.exit43, label %test_case.exit43.thread

test_case.exit43.thread:                          ; preds = %test_case.exit40
  %32 = load ptr, ptr @stderr, align 8, !tbaa !4
  %33 = tail call i32 (ptr, ptr, ...) @fprintf(ptr noundef %32, ptr noundef nonnull @.str.47, ptr noundef nonnull @.str.247, i32 noundef 0) #6
  br label %test_case.exit52

test_case.exit43:                                 ; preds = %test_case.exit40
  %34 = tail call i32 @test_str_ne(ptr noundef nonnull @.str.24, i32 noundef 271, ptr noundef nonnull @.str.230, ptr noundef nonnull @.str.209, ptr noundef nonnull @.str.232, ptr noundef null) #5
  %.not.i44 = icmp eq i32 %34, 1
  br i1 %.not.i44, label %test_case.exit46, label %test_case.exit46.thread

test_case.exit46.thread:                          ; preds = %test_case.exit43
  %35 = load ptr, ptr @stderr, align 8, !tbaa !4
  %36 = tail call i32 (ptr, ptr, ...) @fprintf(ptr noundef %35, ptr noundef nonnull @.str.47, ptr noundef nonnull @.str.248, i32 noundef 1) #6
  br label %test_case.exit52

test_case.exit46:                                 ; preds = %test_case.exit43
  %37 = tail call i32 @test_str_ne(ptr noundef nonnull @.str.24, i32 noundef 272, ptr noundef nonnull @.str.209, ptr noundef nonnull @.str.231, ptr noundef null, ptr noundef nonnull @test_string.buf) #5
  %.not.i47 = icmp eq i32 %37, 1
  br i1 %.not.i47, label %test_case.exit49, label %test_case.exit49.thread

test_case.exit49.thread:                          ; preds = %test_case.exit46
  %38 = load ptr, ptr @stderr, align 8, !tbaa !4
  %39 = tail call i32 (ptr, ptr, ...) @fprintf(ptr noundef %38, ptr noundef nonnull @.str.47, ptr noundef nonnull @.str.249, i32 noundef 1) #6
  br label %test_case.exit52

test_case.exit49:                                 ; preds = %test_case.exit46
  %40 = tail call i32 @test_str_eq(ptr noundef nonnull @.str.24, i32 noundef 273, ptr noundef nonnull @.str.251, ptr noundef nonnull @.str.252, ptr noundef nonnull @.str.253, ptr noundef nonnull @.str.254) #5
  %.not.i50 = icmp eq i32 %40, 0
  br i1 %.not.i50, label %test_case.exit52, label %test_case.exit52.thread

test_case.exit52.thread:                          ; preds = %test_case.exit49
  %41 = load ptr, ptr @stderr, align 8, !tbaa !4
  %42 = tail call i32 (ptr, ptr, ...) @fprintf(ptr noundef %41, ptr noundef nonnull @.str.47, ptr noundef nonnull @.str.250, i32 noundef 0) #6
  br label %test_case.exit52

test_case.exit52:                                 ; preds = %test_case.exit.thread, %test_case.exit16.thread, %test_case.exit19.thread, %test_case.exit22.thread, %test_case.exit25.thread, %test_case.exit28.thread, %test_case.exit31.thread, %test_case.exit34.thread, %test_case.exit37.thread, %test_case.exit40.thread, %test_case.exit43.thread, %test_case.exit46.thread, %test_case.exit49.thread, %test_case.exit52.thread, %test_case.exit49
  %.0 = phi i32 [ 1, %test_case.exit49 ], [ 0, %test_case.exit52.thread ], [ 0, %test_case.exit49.thread ], [ 0, %test_case.exit46.thread ], [ 0, %test_case.exit43.thread ], [ 0, %test_case.exit40.thread ], [ 0, %test_case.exit37.thread ], [ 0, %test_case.exit34.thread ], [ 0, %test_case.exit31.thread ], [ 0, %test_case.exit28.thread ], [ 0, %test_case.exit25.thread ], [ 0, %test_case.exit22.thread ], [ 0, %test_case.exit19.thread ], [ 0, %test_case.exit16.thread ], [ 0, %test_case.exit.thread ]
  ret i32 %.0
}